; Function Attrs: mustprogress nofree norecurse nosync nounwind willreturn memory(argmem: readwrite) uwtable
define dso_local void @archive_entry_set_filetype(ptr noundef captures(none) initializes((16, 20)) %0, i32 noundef %1) local_unnamed_addr #7 {
  %3 = getelementptr inbounds nuw i8, ptr %0, i64 16
  store i32 0, ptr %3, align 8, !tbaa !78
  %4 = getelementptr inbounds nuw i8, ptr %0, i64 1064
  %5 = load i32, ptr %4, align 8, !tbaa !56
  %6 = and i32 %5, -61441
  %7 = and i32 %1, 61440
  %8 = or disjoint i32 %6, %7
  store i32 %8, ptr %4, align 8, !tbaa !56
  %9 = getelementptr inbounds nuw i8, ptr %0, i64 192
  %10 = load i32, ptr %9, align 8, !tbaa !31
  %11 = or i32 %10, 1024
  store i32 %11, ptr %9, align 8, !tbaa !31
  ret void
}